target datalayout = "e-m:e-p270:32:32-p271:32:32-p272:64:64-i64:64-i128:128-f80:128-n8:16:32:64-S128"
target triple = "x86_64-pc-linux-gnu"

%struct.SurfaceDataBounds = type { i32, i32, i32, i32 }

; Function Attrs: nounwind uwtable
define void @SurfaceData_IntersectBlitBounds(ptr noundef %0, ptr noundef %1, i32 noundef %2, i32 noundef %3) #0 {
  %5 = alloca ptr, align 8
  %6 = alloca ptr, align 8
  %7 = alloca i32, align 4
  %8 = alloca i32, align 4
  %9 = alloca i32, align 4
  store ptr %0, ptr %5, align 8
  store ptr %1, ptr %6, align 8
  store i32 %2, ptr %7, align 4
  store i32 %3, ptr %8, align 4
  %10 = load ptr, ptr %6, align 8
  %11 = getelementptr inbounds %struct.SurfaceDataBounds, ptr %10, i32 0, i32 0
  %12 = load i32, ptr %11, align 4
  %13 = load ptr, ptr %5, align 8
  %14 = getelementptr inbounds %struct.SurfaceDataBounds, ptr %13, i32 0, i32 0
  %15 = load i32, ptr %14, align 4
  %16 = load i32, ptr %7, align 4
  %17 = add nsw i32 %15, %16
  store i32 %17, ptr %9, align 4
  %18 = icmp slt i32 %12, %17
  br i1 %18, label %19, label %23

19:                                               ; preds = %4
  %20 = load i32, ptr %9, align 4
  %21 = load ptr, ptr %6, align 8
  %22 = getelementptr inbounds %struct.SurfaceDataBounds, ptr %21, i32 0, i32 0
  store i32 %20, ptr %22, align 4
  br label %23

23:                                               ; preds = %19, %4
  %24 = load ptr, ptr %6, align 8
  %25 = getelementptr inbounds %struct.SurfaceDataBounds, ptr %24, i32 0, i32 1
  %26 = load i32, ptr %25, align 4
  %27 = load ptr, ptr %5, align 8
  %28 = getelementptr inbounds %struct.SurfaceDataBounds, ptr %27, i32 0, i32 1
  %29 = load i32, ptr %28, align 4
  %30 = load i32, ptr %8, align 4
  %31 = add nsw i32 %29, %30
  store i32 %31, ptr %9, align 4
  %32 = icmp slt i32 %26, %31
  br i1 %32, label %33, label %37

33:                                               ; preds = %23
  %34 = load i32, ptr %9, align 4
  %35 = load ptr, ptr %6, align 8
  %36 = getelementptr inbounds %struct.SurfaceDataBounds, ptr %35, i32 0, i32 1
  store i32 %34, ptr %36, align 4
  br label %37

37:                                               ; preds = %33, %23
  %38 = load ptr, ptr %6, align 8
  %39 = getelementptr inbounds %struct.SurfaceDataBounds, ptr %38, i32 0, i32 2
  %40 = load i32, ptr %39, align 4
  %41 = load ptr, ptr %5, align 8
  %42 = getelementptr inbounds %struct.SurfaceDataBounds, ptr %41, i32 0, i32 2
  %43 = load i32, ptr %42, align 4
  %44 = load i32, ptr %7, align 4
  %45 = add nsw i32 %43, %44
  store i32 %45, ptr %9, align 4
  %46 = icmp sgt i32 %40, %45
  br i1 %46, label %47, label %51

47:                                               ; preds = %37
  %48 = load i32, ptr %9, align 4
  %49 = load ptr, ptr %6, align 8
  %50 = getelementptr inbounds %struct.SurfaceDataBounds, ptr %49, i32 0, i32 2
  store i32 %48, ptr %50, align 4
  br label %51

51:                                               ; preds = %47, %37
  %52 = load ptr, ptr %6, align 8
  %53 = getelementptr inbounds %struct.SurfaceDataBounds, ptr %52, i32 0, i32 3
  %54 = load i32, ptr %53, align 4
  %55 = load ptr, ptr %5, align 8
  %56 = getelementptr inbounds %struct.SurfaceDataBounds, ptr %55, i32 0, i32 3
  %57 = load i32, ptr %56, align 4
  %58 = load i32, ptr %8, align 4
  %59 = add nsw i32 %57, %58
  store i32 %59, ptr %9, align 4
  %60 = icmp sgt i32 %54, %59
  br i1 %60, label %61, label %65

61:                                               ; preds = %51
  %62 = load i32, ptr %9, align 4
  %63 = load ptr, ptr %6, align 8
  %64 = getelementptr inbounds %struct.SurfaceDataBounds, ptr %63, i32 0, i32 3
  store i32 %62, ptr %64, align 4
  br label %65

65:                                               ; preds = %61, %51
  %66 = load ptr, ptr %5, align 8
  %67 = getelementptr inbounds %struct.SurfaceDataBounds, ptr %66, i32 0, i32 0
  %68 = load i32, ptr %67, align 4
  %69 = load ptr, ptr %6, align 8
  %70 = getelementptr inbounds %struct.SurfaceDataBounds, ptr %69, i32 0, i32 0
  %71 = load i32, ptr %70, align 4
  %72 = load i32, ptr %7, align 4
  %73 = sub nsw i32 %71, %72
  store i32 %73, ptr %9, align 4
  %74 = icmp slt i32 %68, %73
  br i1 %74, label %75, label %79

75:                                               ; preds = %65
  %76 = load i32, ptr %9, align 4
  %77 = load ptr, ptr %5, align 8
  %78 = getelementptr inbounds %struct.SurfaceDataBounds, ptr %77, i32 0, i32 0
  store i32 %76, ptr %78, align 4
  br label %79

79:                                               ; preds = %75, %65
  %80 = load ptr, ptr %5, align 8
  %81 = getelementptr inbounds %struct.SurfaceDataBounds, ptr %80, i32 0, i32 1
  %82 = load i32, ptr %81, align 4
  %83 = load ptr, ptr %6, align 8
  %84 = getelementptr inbounds %struct.SurfaceDataBounds, ptr %83, i32 0, i32 1
  %85 = load i32, ptr %84, align 4
  %86 = load i32, ptr %8, align 4
  %87 = sub nsw i32 %85, %86
  store i32 %87, ptr %9, align 4
  %88 = icmp slt i32 %82, %87
  br i1 %88, label %89, label %93

89:                                               ; preds = %79
  %90 = load i32, ptr %9, align 4
  %91 = load ptr, ptr %5, align 8
  %92 = getelementptr inbounds %struct.SurfaceDataBounds, ptr %91, i32 0, i32 1
  store i32 %90, ptr %92, align 4
  br label %93

93:                                               ; preds = %89, %79
  %94 = load ptr, ptr %5, align 8
  %95 = getelementptr inbounds %struct.SurfaceDataBounds, ptr %94, i32 0, i32 2
  %96 = load i32, ptr %95, align 4
  %97 = load ptr, ptr %6, align 8
  %98 = getelementptr inbounds %struct.SurfaceDataBounds, ptr %97, i32 0, i32 2
  %99 = load i32, ptr %98, align 4
  %100 = load i32, ptr %7, align 4
  %101 = sub nsw i32 %99, %100
  store i32 %101, ptr %9, align 4
  %102 = icmp sgt i32 %96, %101
  br i1 %102, label %103, label %107

103:                                              ; preds = %93
  %104 = load i32, ptr %9, align 4
  %105 = load ptr, ptr %5, align 8
  %106 = getelementptr inbounds %struct.SurfaceDataBounds, ptr %105, i32 0, i32 2
  store i32 %104, ptr %106, align 4
  br label %107

107:                                              ; preds = %103, %93
  %108 = load ptr, ptr %5, align 8
  %109 = getelementptr inbounds %struct.SurfaceDataBounds, ptr %108, i32 0, i32 3
  %110 = load i32, ptr %109, align 4
  %111 = load ptr, ptr %6, align 8
  %112 = getelementptr inbounds %struct.SurfaceDataBounds, ptr %111, i32 0, i32 3
  %113 = load i32, ptr %112, align 4
  %114 = load i32, ptr %8, align 4
  %115 = sub nsw i32 %113, %114
  store i32 %115, ptr %9, align 4
  %116 = icmp sgt i32 %110, %115
  br i1 %116, label %117, label %121

117:                                              ; preds = %107
  %118 = load i32, ptr %9, align 4
  %119 = load ptr, ptr %5, align 8
  %120 = getelementptr inbounds %struct.SurfaceDataBounds, ptr %119, i32 0, i32 3
  store i32 %118, ptr %120, align 4
  br label %121

121:                                              ; preds = %117, %107
  ret void
}