; Function Attrs: mustprogress nofree norecurse nosync nounwind willreturn memory(argmem: readwrite) uwtable
define void @SurfaceData_IntersectBlitBounds(ptr nocapture noundef %0, ptr nocapture noundef %1, i32 noundef %2, i32 noundef %3) local_unnamed_addr #2 {
  %5 = load i32, ptr %1, align 4
  %6 = load i32, ptr %0, align 4
  %7 = add nsw i32 %6, %2
  %8 = icmp slt i32 %5, %7
  br i1 %8, label %9, label %10

9:                                                ; preds = %4
  store i32 %7, ptr %1, align 4
  br label %10

10:                                               ; preds = %9, %4
  %11 = phi i32 [ %7, %9 ], [ %5, %4 ]
  %12 = getelementptr inbounds i8, ptr %1, i64 4
  %13 = load i32, ptr %12, align 4
  %14 = getelementptr inbounds i8, ptr %0, i64 4
  %15 = load i32, ptr %14, align 4
  %16 = add nsw i32 %15, %3
  %17 = icmp slt i32 %13, %16
  br i1 %17, label %18, label %19

18:                                               ; preds = %10
  store i32 %16, ptr %12, align 4
  br label %19

19:                                               ; preds = %18, %10
  %20 = phi i32 [ %16, %18 ], [ %13, %10 ]
  %21 = getelementptr inbounds i8, ptr %1, i64 8
  %22 = load i32, ptr %21, align 4
  %23 = getelementptr inbounds i8, ptr %0, i64 8
  %24 = load i32, ptr %23, align 4
  %25 = add nsw i32 %24, %2
  %26 = icmp sgt i32 %22, %25
  br i1 %26, label %27, label %28

27:                                               ; preds = %19
  store i32 %25, ptr %21, align 4
  br label %28

28:                                               ; preds = %27, %19
  %29 = getelementptr inbounds i8, ptr %1, i64 12
  %30 = load i32, ptr %29, align 4
  %31 = getelementptr inbounds i8, ptr %0, i64 12
  %32 = load i32, ptr %31, align 4
  %33 = add nsw i32 %32, %3
  %34 = icmp sgt i32 %30, %33
  br i1 %34, label %35, label %36

35:                                               ; preds = %28
  store i32 %33, ptr %29, align 4
  br label %36

36:                                               ; preds = %35, %28
  %37 = load i32, ptr %0, align 4
  %38 = sub nsw i32 %11, %2
  %39 = icmp slt i32 %37, %38
  br i1 %39, label %40, label %41

40:                                               ; preds = %36
  store i32 %38, ptr %0, align 4
  %.pre = load i32, ptr %12, align 4
  br label %41

41:                                               ; preds = %40, %36
  %42 = phi i32 [ %.pre, %40 ], [ %20, %36 ]
  %43 = load i32, ptr %14, align 4
  %44 = sub nsw i32 %42, %3
  %45 = icmp slt i32 %43, %44
  br i1 %45, label %46, label %47

46:                                               ; preds = %41
  store i32 %44, ptr %14, align 4
  br label %47

47:                                               ; preds = %46, %41
  %48 = load i32, ptr %23, align 4
  %49 = load i32, ptr %21, align 4
  %50 = sub nsw i32 %49, %2
  %51 = icmp sgt i32 %48, %50
  br i1 %51, label %52, label %53

52:                                               ; preds = %47
  store i32 %50, ptr %23, align 4
  br label %53

53:                                               ; preds = %52, %47
  %54 = load i32, ptr %31, align 4
  %55 = load i32, ptr %29, align 4
  %56 = sub nsw i32 %55, %3
  %57 = icmp sgt i32 %54, %56
  br i1 %57, label %58, label %59

58:                                               ; preds = %53
  store i32 %56, ptr %31, align 4
  br label %59

59:                                               ; preds = %58, %53
  ret void
}